Certificate:
    Data:
        Version: 3 (0x2)
        Serial Number:
            7a:c0:41:53:c7:cf:e1:93:c0:4f:97:e2:c8:60:dd:c0
        Signature Algorithm: ecdsa-with-SHA384
        Issuer: O=Umeku, CN=Umeku Root Certificate Authority
        Validity
            Not Before: Mar 25 00:00:00 2022 GMT
            Not After : Mar 27 00:00:00 2032 GMT
        Subject: O=Umeku, CN=Umeku Root Certificate Authority
        Subject Public Key Info:
            Public Key Algorithm: id-ecPublicKey
                Public-Key: (384 bit)
                pub:
                    04:36:1b:4b:5d:c2:4b:84:a2:61:2a:b2:c0:ce:c0:
                    79:1b:db:20:25:26:cc:52:7c:f0:66:62:04:cc:8a:
                    97:b0:89:49:98:2d:c1:76:1c:94:71:42:d7:8f:58:
                    35:9f:f0:10:49:28:1e:da:b5:39:81:88:52:43:5a:
                    3a:8a:c6:ad:57:fc:1f:4b:97:b1:11:4b:b3:7a:47:
                    a8:fb:2e:a9:4f:7f:6c:ce:20:5a:f4:fc:1d:58:01:
                    29:c6:8a:2e:bc:4e:a6
                ASN1 OID: secp384r1
                NIST CURVE: P-384
        X509v3 extensions:
            X509v3 Basic Constraints: critical
                CA:TRUE
            X509v3 Key Usage: critical
                Certificate Sign, CRL Sign
            X509v3 Name Constraints: critical
                Permitted:
                  DNS:umeku.com
                  DNS:lan
                  DNS:onion
                  email:umeku.com

            X509v3 Subject Key Identifier: 
                30:A8:4E:4C:4F:B4:A5:C9:9A:81:1A:CB:F9:BD:7B:84:53:59:39:71
            X509v3 Subject Alternative Name: 
                URI:https://ca.umeku.com/, email:certmaster@umeku.com
            X509v3 Authority Key Identifier: 
                keyid:30:A8:4E:4C:4F:B4:A5:C9:9A:81:1A:CB:F9:BD:7B:84:53:59:39:71

            X509v3 Issuer Alternative Name: 
                URI:https://ca.umeku.com/, email:certmaster@umeku.com
    Signature Algorithm: ecdsa-with-SHA384
         30:64:02:30:42:c6:59:c1:b4:56:a0:43:e0:a1:1c:ed:75:1e:
         cd:7b:a6:db:b1:d7:d9:ae:33:3e:ee:00:3a:bc:cf:1e:83:bd:
         0d:a8:3b:7d:b3:7f:e4:b6:de:ef:21:24:c0:0c:46:69:02:30:
         32:30:c9:6a:f9:09:cc:3b:09:f5:24:67:25:c4:94:0c:8d:ab:
         a7:71:5b:1a:af:0a:a7:1f:79:5c:8a:d0:3d:5e:58:2b:27:b5:
         63:2a:cf:cf:a9:ae:eb:9b:9a:5f:ae:a4
-----BEGIN CERTIFICATE-----
MIICwTCCAkigAwIBAgIQesBBU8fP4ZPAT5fiyGDdwDAKBggqhkjOPQQDAzA7MQ4w
DAYDVQQKDAVVbWVrdTEpMCcGA1UEAwwgVW1la3UgUm9vdCBDZXJ0aWZpY2F0ZSBB
dXRob3JpdHkwHhcNMjIwMzI1MDAwMDAwWhcNMzIwMzI3MDAwMDAwWjA7MQ4wDAYD
VQQKDAVVbWVrdTEpMCcGA1UEAwwgVW1la3UgUm9vdCBDZXJ0aWZpY2F0ZSBBdXRo
b3JpdHkwdjAQBgcqhkjOPQIBBgUrgQQAIgNiAAQ2G0tdwkuEomEqssDOwHkb2yAl
JsxSfPBmYgTMipewiUmYLcF2HJRxQtePWDWf8BBJKB7atTmBiFJDWjqKxq1X/B9L
l7ERS7N6R6j7LqlPf2zOIFr0/B1YASnGii68TqajggEPMIIBCzAPBgNVHRMBAf8E
BTADAQH/MA4GA1UdDwEB/wQEAwIBBjA4BgNVHR4BAf8ELjAsoCowC4IJdW1la3Uu
Y29tMAWCA2xhbjAHggVvbmlvbjALgQl1bWVrdS5jb20wHQYDVR0OBBYEFDCoTkxP
tKXJmoEay/m9e4RTWTlxMDYGA1UdEQQvMC2GFWh0dHBzOi8vY2EudW1la3UuY29t
L4EUY2VydG1hc3RlckB1bWVrdS5jb20wHwYDVR0jBBgwFoAUMKhOTE+0pcmagRrL
+b17hFNZOXEwNgYDVR0SBC8wLYYVaHR0cHM6Ly9jYS51bWVrdS5jb20vgRRjZXJ0
bWFzdGVyQHVtZWt1LmNvbTAKBggqhkjOPQQDAwNnADBkAjBCxlnBtFagQ+ChHO11
Hs17ptux19muMz7uADq8zx6DvQ2oO32zf+S23u8hJMAMRmkCMDIwyWr5Ccw7CfUk
ZyXElAyNq6dxWxqvCqcfeVyK0D1eWCsntWMqz8+pruubml+upA==
-----END CERTIFICATE-----
